target datalayout = "e-m:e-p270:32:32-p271:32:32-p272:64:64-i64:64-i128:128-f80:128-n8:16:32:64-S128"
target triple = "x86_64-pc-linux-gnu"

%struct.RCVLN = type { [5120 x i8], i32, i32, ptr, ptr }

@clamdopts = external global ptr, align 8
@__const.get_clamd_version.zVERSION = private unnamed_addr constant [9 x i8] c"zVERSION\00", align 1
@.str.14 = private unnamed_addr constant [53 x i8] c"Error occurred while receiving version information.\0A\00", align 1
@.str.15 = private unnamed_addr constant [4 x i8] c"%s\0A\00", align 1

; Function Attrs: nounwind uwtable
define dso_local i32 @get_clamd_version(ptr noundef %0) #0 {
  %2 = alloca i32, align 4
  %3 = alloca ptr, align 8
  %4 = alloca ptr, align 8
  %5 = alloca i32, align 4
  %6 = alloca i32, align 4
  %7 = alloca %struct.RCVLN, align 8
  %8 = alloca [9 x i8], align 1
  store ptr %0, ptr %3, align 8
  call void @llvm.memcpy.p0.p0.i64(ptr align 1 %8, ptr align 1 @__const.get_clamd_version.zVERSION, i64 9, i1 false)
  %9 = load ptr, ptr %3, align 8
  %10 = call i32 @isremote(ptr noundef %9)
  %11 = load ptr, ptr @clamdopts, align 8
  %12 = call i32 @dconnect(ptr noundef %11)
  store i32 %12, ptr %6, align 4
  %13 = icmp slt i32 %12, 0
  br i1 %13, label %14, label %15

14:                                               ; preds = %1
  store i32 2, ptr %2, align 4
  br label %39

15:                                               ; preds = %1
  %16 = load i32, ptr %6, align 4
  call void @recvlninit(ptr noundef %7, i32 noundef %16)
  %17 = load i32, ptr %6, align 4
  %18 = getelementptr inbounds [9 x i8], ptr %8, i64 0, i64 0
  %19 = call i32 @sendln(i32 noundef %17, ptr noundef %18, i32 noundef 9)
  %20 = icmp ne i32 %19, 0
  br i1 %20, label %21, label %24

21:                                               ; preds = %15
  %22 = load i32, ptr %6, align 4
  %23 = call i32 @close(i32 noundef %22)
  store i32 2, ptr %2, align 4
  br label %39

24:                                               ; preds = %15
  br label %25

25:                                               ; preds = %33, %24
  %26 = call i32 @recvln(ptr noundef %7, ptr noundef %4, ptr noundef null)
  store i32 %26, ptr %5, align 4
  %27 = icmp ne i32 %26, 0
  br i1 %27, label %28, label %36

28:                                               ; preds = %25
  %29 = load i32, ptr %5, align 4
  %30 = icmp eq i32 %29, -1
  br i1 %30, label %31, label %33

31:                                               ; preds = %28
  %32 = call i32 (i32, ptr, ...) @logg(i32 noundef 5, ptr noundef @.str.14)
  br label %36

33:                                               ; preds = %28
  %34 = load ptr, ptr %4, align 8
  %35 = call i32 (ptr, ...) @printf(ptr noundef @.str.15, ptr noundef %34)
  br label %25

36:                                               ; preds = %31, %25
  %37 = load i32, ptr %6, align 4
  %38 = call i32 @close(i32 noundef %37)
  store i32 0, ptr %2, align 4
  br label %39

39:                                               ; preds = %36, %21, %14
  %40 = load i32, ptr %2, align 4
  ret i32 %40
}