; Function Attrs: nounwind uwtable
define dso_local noundef i32 @get_clamd_version(ptr nocapture noundef readnone %0) local_unnamed_addr #0 {
  %2 = alloca ptr, align 8
  %3 = alloca %struct.RCVLN, align 8
  %4 = alloca [9 x i8], align 1
  call void @llvm.memcpy.p0.p0.i64(ptr noundef nonnull align 1 dereferenceable(9) %4, ptr noundef nonnull align 1 dereferenceable(9) @__const.get_clamd_version.zVERSION, i64 9, i1 false)
  %5 = tail call fastcc i32 @isremote()
  %6 = load ptr, ptr @clamdopts, align 8
  %7 = tail call i32 @dconnect(ptr noundef %6) #14
  %8 = icmp slt i32 %7, 0
  br i1 %8, label %17, label %9

9:                                                ; preds = %1
  call void @recvlninit(ptr noundef nonnull %3, i32 noundef %7) #14
  %10 = call i32 @sendln(i32 noundef %7, ptr noundef nonnull %4, i32 noundef 9) #14
  %.not = icmp eq i32 %10, 0
  br i1 %.not, label %.preheader, label %.sink.split

.preheader:                                       ; preds = %9, %14
  %11 = call i32 @recvln(ptr noundef nonnull %3, ptr noundef nonnull %2, ptr noundef null) #14
  switch i32 %11, label %14 [
    i32 0, label %.sink.split
    i32 -1, label %12
  ]

12:                                               ; preds = %.preheader
  %13 = call i32 (i32, ptr, ...) @logg(i32 noundef 5, ptr noundef nonnull @.str.14) #14
  br label %.sink.split

14:                                               ; preds = %.preheader
  %15 = load ptr, ptr %2, align 8
  %puts = call i32 @puts(ptr nonnull dereferenceable(1) %15)
  br label %.preheader

.sink.split:                                      ; preds = %.preheader, %12, %9
  %.0.ph = phi i32 [ 2, %9 ], [ 0, %12 ], [ %11, %.preheader ]
  %16 = call i32 @close(i32 noundef %7) #14
  br label %17

17:                                               ; preds = %.sink.split, %1
  %.0 = phi i32 [ 2, %1 ], [ %.0.ph, %.sink.split ]
  ret i32 %.0
}